target datalayout = "e-m:e-p270:32:32-p271:32:32-p272:64:64-i64:64-i128:128-f80:128-n8:16:32:64-S128"
target triple = "x86_64-pc-linux-gnu"

%struct._YR_COMPILER = type { i32, i32, i32, i32, i32, [1 x %struct.__jmp_buf_tag], ptr, ptr, ptr, ptr, ptr, ptr, ptr, ptr, ptr, ptr, ptr, ptr, ptr, ptr, i32, i32, [4 x ptr], [4 x ptr], i32, i32, i32, [16 x ptr], i32, [16 x ptr], i32, [256 x i8], [1024 x i8], ptr, i16, [1024 x i8], ptr, %struct.rq, %struct.cs, ptr, i32 }
%struct.__jmp_buf_tag = type { [8 x i64], i32, %struct.__sigset_t }
%struct.__sigset_t = type { [16 x i64] }
%struct.rq = type { ptr, ptr }
%struct.cs = type { ptr, ptr }
%struct._yc_string = type { %struct.anon, i32, i32, %union.anon, %union.anon.0, %union.anon.1, i32 }
%struct.anon = type { ptr }
%union.anon = type { ptr }
%union.anon.0 = type { ptr }
%union.anon.1 = type { ptr }

; Function Attrs: nounwind uwtable
define ptr @yr_parser_lookup_string(ptr noundef %0, ptr noundef %1) #0 {
  %3 = alloca ptr, align 8
  %4 = alloca ptr, align 8
  %5 = alloca ptr, align 8
  %6 = alloca ptr, align 8
  %7 = alloca ptr, align 8
  %8 = alloca i32, align 4
  store ptr %0, ptr %4, align 8, !tbaa !3
  store ptr %1, ptr %5, align 8, !tbaa !27
  call void @llvm.lifetime.start.p0(i64 8, ptr %6) #5
  call void @llvm.lifetime.start.p0(i64 8, ptr %7) #5
  %9 = load ptr, ptr %4, align 8, !tbaa !3
  %10 = call ptr @yara_yyget_extra(ptr noundef %9)
  store ptr %10, ptr %7, align 8, !tbaa !28
  %11 = load ptr, ptr %7, align 8, !tbaa !28
  %12 = getelementptr inbounds nuw %struct._YR_COMPILER, ptr %11, i32 0, i32 19
  %13 = load ptr, ptr %12, align 8, !tbaa !30
  store ptr %13, ptr %6, align 8, !tbaa !31
  br label %14

14:                                               ; preds = %40, %2
  %15 = load ptr, ptr %6, align 8, !tbaa !31
  %16 = icmp eq ptr %15, null
  br i1 %16, label %23, label %17

17:                                               ; preds = %14
  %18 = load ptr, ptr %6, align 8, !tbaa !31
  %19 = getelementptr inbounds nuw %struct._yc_string, ptr %18, i32 0, i32 1
  %20 = load i32, ptr %19, align 8, !tbaa !32
  %21 = and i32 %20, 4096
  %22 = icmp ne i32 %21, 0
  br label %23

23:                                               ; preds = %17, %14
  %24 = phi i1 [ true, %14 ], [ %22, %17 ]
  %25 = xor i1 %24, true
  br i1 %25, label %26, label %46

26:                                               ; preds = %23
  %27 = load ptr, ptr %6, align 8, !tbaa !31
  %28 = getelementptr inbounds nuw %struct._yc_string, ptr %27, i32 0, i32 3
  %29 = load ptr, ptr %28, align 8, !tbaa !7
  %30 = load ptr, ptr %5, align 8, !tbaa !27
  %31 = call i32 @strcmp(ptr noundef %29, ptr noundef %30) #6
  %32 = icmp eq i32 %31, 0
  br i1 %32, label %33, label %40

33:                                               ; preds = %26
  %34 = load ptr, ptr %6, align 8, !tbaa !31
  %35 = getelementptr inbounds nuw %struct._yc_string, ptr %34, i32 0, i32 5
  %36 = load ptr, ptr %35, align 8, !tbaa !7
  %37 = icmp eq ptr %36, null
  br i1 %37, label %38, label %40

38:                                               ; preds = %33
  %39 = load ptr, ptr %6, align 8, !tbaa !31
  store ptr %39, ptr %3, align 8
  store i32 1, ptr %8, align 4
  br label %54

40:                                               ; preds = %33, %26
  %41 = load ptr, ptr %7, align 8, !tbaa !28
  %42 = getelementptr inbounds nuw %struct._YR_COMPILER, ptr %41, i32 0, i32 8
  %43 = load ptr, ptr %42, align 8, !tbaa !35
  %44 = load ptr, ptr %6, align 8, !tbaa !31
  %45 = call ptr @yr_arena_next_address(ptr noundef %43, ptr noundef %44, i64 noundef 48)
  store ptr %45, ptr %6, align 8, !tbaa !31
  br label %14

46:                                               ; preds = %23
  %47 = load ptr, ptr %7, align 8, !tbaa !28
  %48 = getelementptr inbounds nuw %struct._YR_COMPILER, ptr %47, i32 0, i32 31
  %49 = getelementptr inbounds [256 x i8], ptr %48, i64 0, i64 0
  %50 = load ptr, ptr %5, align 8, !tbaa !27
  %51 = call i64 @cli_strlcpy(ptr noundef %49, ptr noundef %50, i64 noundef 256)
  %52 = load ptr, ptr %7, align 8, !tbaa !28
  %53 = getelementptr inbounds nuw %struct._YR_COMPILER, ptr %52, i32 0, i32 4
  store i32 19, ptr %53, align 8, !tbaa !36
  store ptr null, ptr %3, align 8
  store i32 1, ptr %8, align 4
  br label %54

54:                                               ; preds = %46, %38
  call void @llvm.lifetime.end.p0(i64 8, ptr %7) #5
  call void @llvm.lifetime.end.p0(i64 8, ptr %6) #5
  %55 = load ptr, ptr %3, align 8
  ret ptr %55
}