; Function Attrs: nounwind uwtable
define ptr @yr_parser_lookup_string(ptr noundef %0, ptr noundef %1) local_unnamed_addr #0 {
  %3 = tail call ptr @yara_yyget_extra(ptr noundef %0) #6
  %4 = getelementptr inbounds nuw i8, ptr %3, i64 328
  %5 = load ptr, ptr %4, align 8, !tbaa !24
  %6 = icmp eq ptr %5, null
  br i1 %6, label %.critedge, label %.lr.ph

.lr.ph:                                           ; preds = %2
  %7 = getelementptr inbounds nuw i8, ptr %3, i64 240
  br label %8

8:                                                ; preds = %.lr.ph, %22
  %.01416 = phi ptr [ %5, %.lr.ph ], [ %24, %22 ]
  %9 = getelementptr inbounds nuw i8, ptr %.01416, i64 8
  %10 = load i32, ptr %9, align 8, !tbaa !25
  %11 = and i32 %10, 4096
  %12 = icmp eq i32 %11, 0
  br i1 %12, label %13, label %.critedge

13:                                               ; preds = %8
  %14 = getelementptr inbounds nuw i8, ptr %.01416, i64 16
  %15 = load ptr, ptr %14, align 8, !tbaa !3
  %16 = tail call i32 @strcmp(ptr noundef nonnull dereferenceable(1) %15, ptr noundef nonnull dereferenceable(1) %1) #7
  %17 = icmp eq i32 %16, 0
  br i1 %17, label %18, label %22

18:                                               ; preds = %13
  %19 = getelementptr inbounds nuw i8, ptr %.01416, i64 32
  %20 = load ptr, ptr %19, align 8, !tbaa !3
  %21 = icmp eq ptr %20, null
  br i1 %21, label %.loopexit, label %22

22:                                               ; preds = %18, %13
  %23 = load ptr, ptr %7, align 8, !tbaa !28
  %24 = tail call ptr @yr_arena_next_address(ptr noundef %23, ptr noundef nonnull %.01416, i64 noundef 48) #6
  %25 = icmp eq ptr %24, null
  br i1 %25, label %.critedge, label %8

.critedge:                                        ; preds = %8, %22, %2
  %26 = getelementptr inbounds nuw i8, ptr %3, i64 692
  %27 = tail call i64 @cli_strlcpy(ptr noundef nonnull %26, ptr noundef %1, i64 noundef 256) #6
  %28 = getelementptr inbounds nuw i8, ptr %3, i64 16
  store i32 19, ptr %28, align 8, !tbaa !29
  br label %.loopexit

.loopexit:                                        ; preds = %18, %.critedge
  %.0 = phi ptr [ null, %.critedge ], [ %.01416, %18 ]
  ret ptr %.0
}